target datalayout = "e-m:e-p270:32:32-p271:32:32-p272:64:64-i64:64-i128:128-f80:128-n8:16:32:64-S128"
target triple = "x86_64-pc-linux-gnu"

%union._GMutex = type { ptr }
%struct.InsnData = type { ptr, ptr, i64, i64, i64, i64 }
%struct.Cache = type { ptr, i32, i32, i32, i32, i64, i64, i64, i64 }

@cores = internal global i32 0, align 4
@use_l2 = internal global i8 0, align 1
@l1_dcaches = internal global ptr null, align 8
@l2_ucaches = internal global ptr null, align 8
@l1_dcache_locks = internal global ptr null, align 8
@l2_ucache_locks = internal global ptr null, align 8

; Function Attrs: nounwind sspstrong uwtable
define internal void @vcpu_mem_access(i32 noundef %0, i32 noundef %1, i64 noundef %2, ptr noundef %3) #0 {
  %5 = alloca i32, align 4
  %6 = alloca i32, align 4
  %7 = alloca i64, align 8
  %8 = alloca ptr, align 8
  %9 = alloca i64, align 8
  %10 = alloca ptr, align 8
  %11 = alloca i32, align 4
  %12 = alloca ptr, align 8
  %13 = alloca i8, align 1
  %14 = alloca i32, align 4
  %15 = alloca i64, align 8
  %16 = alloca i64, align 8
  %17 = alloca i64, align 8
  %18 = alloca i64, align 8
  store i32 %0, ptr %5, align 4
  store i32 %1, ptr %6, align 4
  store i64 %2, ptr %7, align 8
  store ptr %3, ptr %8, align 8
  call void @llvm.lifetime.start.p0(i64 8, ptr %9) #10
  store i64 0, ptr %9, align 8, !annotation !3
  call void @llvm.lifetime.start.p0(i64 8, ptr %10) #10
  store ptr null, ptr %10, align 8, !annotation !3
  call void @llvm.lifetime.start.p0(i64 4, ptr %11) #10
  store i32 0, ptr %11, align 4, !annotation !3
  call void @llvm.lifetime.start.p0(i64 8, ptr %12) #10
  store ptr null, ptr %12, align 8, !annotation !3
  call void @llvm.lifetime.start.p0(i64 1, ptr %13) #10
  store i8 0, ptr %13, align 1, !annotation !3
  %19 = load i32, ptr %6, align 4
  %20 = load i64, ptr %7, align 8
  %21 = call ptr @qemu_plugin_get_hwaddr(i32 noundef %19, i64 noundef %20)
  store ptr %21, ptr %10, align 8
  %22 = load ptr, ptr %10, align 8
  %23 = icmp ne ptr %22, null
  br i1 %23, label %24, label %28

24:                                               ; preds = %4
  %25 = load ptr, ptr %10, align 8
  %26 = call zeroext i1 @qemu_plugin_hwaddr_is_io(ptr noundef %25)
  br i1 %26, label %27, label %28

27:                                               ; preds = %24
  store i32 1, ptr %14, align 4
  br label %127

28:                                               ; preds = %24, %4
  %29 = load ptr, ptr %10, align 8
  %30 = icmp ne ptr %29, null
  br i1 %30, label %31, label %34

31:                                               ; preds = %28
  %32 = load ptr, ptr %10, align 8
  %33 = call i64 @qemu_plugin_hwaddr_phys_addr(ptr noundef %32)
  br label %36

34:                                               ; preds = %28
  %35 = load i64, ptr %7, align 8
  br label %36

36:                                               ; preds = %34, %31
  %37 = phi i64 [ %33, %31 ], [ %35, %34 ]
  store i64 %37, ptr %9, align 8
  %38 = load i32, ptr %5, align 4
  %39 = load i32, ptr @cores, align 4
  %40 = urem i32 %38, %39
  store i32 %40, ptr %11, align 4
  %41 = load ptr, ptr @l1_dcache_locks, align 8
  %42 = load i32, ptr %11, align 4
  %43 = sext i32 %42 to i64
  %44 = getelementptr inbounds %union._GMutex, ptr %41, i64 %43
  call void @g_mutex_lock(ptr noundef %44)
  %45 = load ptr, ptr @l1_dcaches, align 8
  %46 = load i32, ptr %11, align 4
  %47 = sext i32 %46 to i64
  %48 = getelementptr inbounds ptr, ptr %45, i64 %47
  %49 = load ptr, ptr %48, align 8
  %50 = load i64, ptr %9, align 8
  %51 = call zeroext i1 @access_cache(ptr noundef %49, i64 noundef %50)
  %52 = zext i1 %51 to i8
  store i8 %52, ptr %13, align 1
  %53 = load i8, ptr %13, align 1, !range !4, !noundef !5
  %54 = trunc i8 %53 to i1
  br i1 %54, label %69, label %55

55:                                               ; preds = %36
  %56 = load ptr, ptr %8, align 8
  store ptr %56, ptr %12, align 8
  %57 = load ptr, ptr %12, align 8
  %58 = getelementptr inbounds nuw %struct.InsnData, ptr %57, i32 0, i32 3
  store i64 1, ptr %15, align 8
  %59 = load i64, ptr %15, align 8
  %60 = atomicrmw add ptr %58, i64 %59 seq_cst, align 8
  store i64 %60, ptr %16, align 8
  %61 = load ptr, ptr @l1_dcaches, align 8
  %62 = load i32, ptr %11, align 4
  %63 = sext i32 %62 to i64
  %64 = getelementptr inbounds ptr, ptr %61, i64 %63
  %65 = load ptr, ptr %64, align 8
  %66 = getelementptr inbounds nuw %struct.Cache, ptr %65, i32 0, i32 8
  %67 = load i64, ptr %66, align 8
  %68 = add i64 %67, 1
  store i64 %68, ptr %66, align 8
  br label %69

69:                                               ; preds = %55, %36
  %70 = load ptr, ptr @l1_dcaches, align 8
  %71 = load i32, ptr %11, align 4
  %72 = sext i32 %71 to i64
  %73 = getelementptr inbounds ptr, ptr %70, i64 %72
  %74 = load ptr, ptr %73, align 8
  %75 = getelementptr inbounds nuw %struct.Cache, ptr %74, i32 0, i32 7
  %76 = load i64, ptr %75, align 8
  %77 = add i64 %76, 1
  store i64 %77, ptr %75, align 8
  %78 = load ptr, ptr @l1_dcache_locks, align 8
  %79 = load i32, ptr %11, align 4
  %80 = sext i32 %79 to i64
  %81 = getelementptr inbounds %union._GMutex, ptr %78, i64 %80
  call void @g_mutex_unlock(ptr noundef %81)
  %82 = load i8, ptr %13, align 1, !range !4, !noundef !5
  %83 = trunc i8 %82 to i1
  br i1 %83, label %87, label %84

84:                                               ; preds = %69
  %85 = load i8, ptr @use_l2, align 1, !range !4, !noundef !5
  %86 = trunc i8 %85 to i1
  br i1 %86, label %88, label %87

87:                                               ; preds = %84, %69
  store i32 1, ptr %14, align 4
  br label %127

88:                                               ; preds = %84
  %89 = load ptr, ptr @l2_ucache_locks, align 8
  %90 = load i32, ptr %11, align 4
  %91 = sext i32 %90 to i64
  %92 = getelementptr inbounds %union._GMutex, ptr %89, i64 %91
  call void @g_mutex_lock(ptr noundef %92)
  %93 = load ptr, ptr @l2_ucaches, align 8
  %94 = load i32, ptr %11, align 4
  %95 = sext i32 %94 to i64
  %96 = getelementptr inbounds ptr, ptr %93, i64 %95
  %97 = load ptr, ptr %96, align 8
  %98 = load i64, ptr %9, align 8
  %99 = call zeroext i1 @access_cache(ptr noundef %97, i64 noundef %98)
  br i1 %99, label %114, label %100

100:                                              ; preds = %88
  %101 = load ptr, ptr %8, align 8
  store ptr %101, ptr %12, align 8
  %102 = load ptr, ptr %12, align 8
  %103 = getelementptr inbounds nuw %struct.InsnData, ptr %102, i32 0, i32 5
  store i64 1, ptr %17, align 8
  %104 = load i64, ptr %17, align 8
  %105 = atomicrmw add ptr %103, i64 %104 seq_cst, align 8
  store i64 %105, ptr %18, align 8
  %106 = load ptr, ptr @l2_ucaches, align 8
  %107 = load i32, ptr %11, align 4
  %108 = sext i32 %107 to i64
  %109 = getelementptr inbounds ptr, ptr %106, i64 %108
  %110 = load ptr, ptr %109, align 8
  %111 = getelementptr inbounds nuw %struct.Cache, ptr %110, i32 0, i32 8
  %112 = load i64, ptr %111, align 8
  %113 = add i64 %112, 1
  store i64 %113, ptr %111, align 8
  br label %114

114:                                              ; preds = %100, %88
  %115 = load ptr, ptr @l2_ucaches, align 8
  %116 = load i32, ptr %11, align 4
  %117 = sext i32 %116 to i64
  %118 = getelementptr inbounds ptr, ptr %115, i64 %117
  %119 = load ptr, ptr %118, align 8
  %120 = getelementptr inbounds nuw %struct.Cache, ptr %119, i32 0, i32 7
  %121 = load i64, ptr %120, align 8
  %122 = add i64 %121, 1
  store i64 %122, ptr %120, align 8
  %123 = load ptr, ptr @l2_ucache_locks, align 8
  %124 = load i32, ptr %11, align 4
  %125 = sext i32 %124 to i64
  %126 = getelementptr inbounds %union._GMutex, ptr %123, i64 %125
  call void @g_mutex_unlock(ptr noundef %126)
  store i32 0, ptr %14, align 4
  br label %127

127:                                              ; preds = %114, %87, %27
  call void @llvm.lifetime.end.p0(i64 1, ptr %13) #10
  call void @llvm.lifetime.end.p0(i64 8, ptr %12) #10
  call void @llvm.lifetime.end.p0(i64 4, ptr %11) #10
  call void @llvm.lifetime.end.p0(i64 8, ptr %10) #10
  call void @llvm.lifetime.end.p0(i64 8, ptr %9) #10
  %128 = load i32, ptr %14, align 4
  switch i32 %128, label %130 [
    i32 0, label %129
    i32 1, label %129
  ]

129:                                              ; preds = %127, %127
  ret void

130:                                              ; preds = %127
  unreachable
}