; Function Attrs: nounwind sspstrong uwtable
define internal void @vcpu_mem_access(i32 noundef %0, i32 noundef %1, i64 noundef %2, ptr noundef captures(none) %3) #0 {
  %5 = tail call ptr @qemu_plugin_get_hwaddr(i32 noundef %1, i64 noundef %2) #12
  %.not = icmp eq ptr %5, null
  br i1 %.not, label %.critedge, label %6

6:                                                ; preds = %4
  %7 = tail call zeroext i1 @qemu_plugin_hwaddr_is_io(ptr noundef nonnull %5) #12
  br i1 %7, label %61, label %8

8:                                                ; preds = %6
  %9 = tail call i64 @qemu_plugin_hwaddr_phys_addr(ptr noundef nonnull %5) #12
  br label %.critedge

.critedge:                                        ; preds = %4, %8
  %10 = phi i64 [ %9, %8 ], [ %2, %4 ]
  %11 = load i32, ptr @cores, align 4
  %12 = urem i32 %0, %11
  %13 = load ptr, ptr @l1_dcache_locks, align 8
  %14 = sext i32 %12 to i64
  %15 = getelementptr inbounds %union._GMutex, ptr %13, i64 %14
  tail call void @g_mutex_lock(ptr noundef %15) #12
  %16 = load ptr, ptr @l1_dcaches, align 8
  %17 = getelementptr inbounds ptr, ptr %16, i64 %14
  %18 = load ptr, ptr %17, align 8
  %19 = tail call fastcc zeroext i1 @access_cache(ptr noundef %18, i64 noundef %10)
  br i1 %19, label %.critedge28, label %20

20:                                               ; preds = %.critedge
  %21 = getelementptr inbounds nuw i8, ptr %3, i64 24
  %22 = atomicrmw add ptr %21, i64 1 seq_cst, align 8
  %23 = load ptr, ptr @l1_dcaches, align 8
  %24 = getelementptr inbounds ptr, ptr %23, i64 %14
  %25 = load ptr, ptr %24, align 8
  %26 = getelementptr inbounds nuw i8, ptr %25, i64 48
  %27 = load i64, ptr %26, align 8
  %28 = add i64 %27, 1
  store i64 %28, ptr %26, align 8
  %29 = load ptr, ptr %24, align 8
  %30 = getelementptr inbounds nuw i8, ptr %29, i64 40
  %31 = load i64, ptr %30, align 8
  %32 = add i64 %31, 1
  store i64 %32, ptr %30, align 8
  %33 = load ptr, ptr @l1_dcache_locks, align 8
  %34 = getelementptr inbounds %union._GMutex, ptr %33, i64 %14
  tail call void @g_mutex_unlock(ptr noundef %34) #12
  %35 = load i8, ptr @use_l2, align 1, !range !3, !noundef !4
  %36 = trunc nuw i8 %35 to i1
  br i1 %36, label %38, label %61

.critedge28:                                      ; preds = %.critedge
  %37 = load ptr, ptr @l1_dcaches, align 8
  br label %.sink.split

38:                                               ; preds = %20
  %39 = load ptr, ptr @l2_ucache_locks, align 8
  %40 = getelementptr inbounds %union._GMutex, ptr %39, i64 %14
  tail call void @g_mutex_lock(ptr noundef %40) #12
  %41 = load ptr, ptr @l2_ucaches, align 8
  %42 = getelementptr inbounds ptr, ptr %41, i64 %14
  %43 = load ptr, ptr %42, align 8
  %44 = tail call fastcc zeroext i1 @access_cache(ptr noundef %43, i64 noundef %10)
  br i1 %44, label %._crit_edge, label %45

._crit_edge:                                      ; preds = %38
  %.pre = load ptr, ptr @l2_ucaches, align 8
  br label %.sink.split

45:                                               ; preds = %38
  %46 = getelementptr inbounds nuw i8, ptr %3, i64 40
  %47 = atomicrmw add ptr %46, i64 1 seq_cst, align 8
  %48 = load ptr, ptr @l2_ucaches, align 8
  %49 = getelementptr inbounds ptr, ptr %48, i64 %14
  %50 = load ptr, ptr %49, align 8
  %51 = getelementptr inbounds nuw i8, ptr %50, i64 48
  %52 = load i64, ptr %51, align 8
  %53 = add i64 %52, 1
  store i64 %53, ptr %51, align 8
  br label %.sink.split

.sink.split:                                      ; preds = %45, %._crit_edge, %.critedge28
  %.sink33 = phi ptr [ %37, %.critedge28 ], [ %.pre, %._crit_edge ], [ %48, %45 ]
  %l1_dcache_locks.sink = phi ptr [ @l1_dcache_locks, %.critedge28 ], [ @l2_ucache_locks, %._crit_edge ], [ @l2_ucache_locks, %45 ]
  %54 = getelementptr inbounds ptr, ptr %.sink33, i64 %14
  %55 = load ptr, ptr %54, align 8
  %56 = getelementptr inbounds nuw i8, ptr %55, i64 40
  %57 = load i64, ptr %56, align 8
  %58 = add i64 %57, 1
  store i64 %58, ptr %56, align 8
  %59 = load ptr, ptr %l1_dcache_locks.sink, align 8
  %60 = getelementptr inbounds %union._GMutex, ptr %59, i64 %14
  tail call void @g_mutex_unlock(ptr noundef %60) #12
  br label %61

61:                                               ; preds = %.sink.split, %20, %6
  ret void
}